; Function Attrs: nounwind uwtable
define dso_local ptr @XML_ParserCreateNS(ptr noundef %0, i8 noundef signext %1) local_unnamed_addr #0 {
  %3 = alloca [2 x i8], align 1
  call void @llvm.lifetime.start.p0(i64 2, ptr nonnull %3) #23
  store i8 %1, ptr %3, align 1, !tbaa !4
  %4 = getelementptr inbounds nuw i8, ptr %3, i64 1
  store i8 0, ptr %4, align 1, !tbaa !4
  %5 = call fastcc ptr @parserCreate(ptr noundef %0, ptr noundef null, ptr noundef nonnull %3)
  call void @llvm.lifetime.end.p0(i64 2, ptr nonnull %3) #23
  ret ptr %5
}